; Function Attrs: nofree norecurse nosync nounwind memory(argmem: readwrite) uwtable
define internal void @blend_hardoverlay_8bit(ptr noundef readonly captures(none) %0, i64 noundef %1, ptr noundef readonly captures(none) %2, i64 noundef %3, ptr noundef writeonly captures(none) %4, i64 noundef %5, i64 noundef %6, i64 noundef %7, ptr noundef readonly captures(none) %8, ptr readnone captures(none) %9) #6 {
  %11 = getelementptr inbounds nuw i8, ptr %8, i64 8
  %12 = load double, ptr %11, align 8, !tbaa !70
  %13 = fptrunc nsz double %12 to float
  %14 = icmp sgt i64 %7, 0
  %15 = icmp sgt i64 %6, 0
  %or.cond = and i1 %14, %15
  br i1 %or.cond, label %.preheader.us, label %._crit_edge63

.preheader.us:                                    ; preds = %10, %._crit_edge.us
  %indvars.iv67 = phi i64 [ %indvars.iv.next68, %._crit_edge.us ], [ 0, %10 ]
  %.05261.us = phi ptr [ %43, %._crit_edge.us ], [ %4, %10 ]
  %.05360.us = phi ptr [ %45, %._crit_edge.us ], [ %2, %10 ]
  %.05459.us = phi ptr [ %44, %._crit_edge.us ], [ %0, %10 ]
  br label %16

16:                                               ; preds = %.preheader.us, %._crit_edge
  %indvars.iv = phi i64 [ 0, %.preheader.us ], [ %indvars.iv.next, %._crit_edge ]
  %17 = getelementptr inbounds nuw i8, ptr %.05459.us, i64 %indvars.iv
  %18 = load i8, ptr %17, align 1, !tbaa !89
  %19 = uitofp i8 %18 to float
  %20 = icmp eq i8 %18, -1
  br i1 %20, label %._crit_edge, label %21

21:                                               ; preds = %16
  %22 = zext i8 %18 to i32
  %23 = getelementptr inbounds nuw i8, ptr %.05360.us, i64 %indvars.iv
  %24 = load i8, ptr %23, align 1, !tbaa !89
  %25 = zext i8 %24 to i32
  %26 = shl nuw nsw i32 %22, 1
  %27 = zext i8 %24 to i16
  %.lhs.trunc.us = mul nuw i16 %27, 255
  %28 = trunc nuw nsw i32 %26 to i16
  %.rhs.trunc.us = sub nuw nsw i16 510, %28
  %29 = udiv i16 %.lhs.trunc.us, %.rhs.trunc.us
  %.zext.us = zext nneg i16 %29 to i32
  %30 = icmp ugt i8 %18, -128
  %31 = select i1 %30, i32 %.zext.us, i32 0
  %32 = mul nuw nsw i32 %26, %25
  %33 = udiv i32 %32, 255
  %34 = icmp ult i8 %18, -127
  %35 = select i1 %34, i32 %33, i32 0
  %36 = add nuw nsw i32 %35, %31
  %spec.select.us = tail call i32 @llvm.umin.i32(i32 %36, i32 255)
  %37 = sub nsw i32 %spec.select.us, %22
  %38 = sitofp i32 %37 to float
  br label %._crit_edge

._crit_edge:                                      ; preds = %16, %21
  %39 = phi float [ %38, %21 ], [ 0.000000e+00, %16 ]
  %40 = tail call nsz float @llvm.fmuladd.f32(float %39, float %13, float %19)
  %41 = fptoui float %40 to i8
  %42 = getelementptr inbounds nuw i8, ptr %.05261.us, i64 %indvars.iv
  store i8 %41, ptr %42, align 1, !tbaa !89
  %indvars.iv.next = add nuw nsw i64 %indvars.iv, 1
  %exitcond.not = icmp eq i64 %indvars.iv.next, %6
  br i1 %exitcond.not, label %._crit_edge.us, label %16, !llvm.loop !170

._crit_edge.us:                                   ; preds = %._crit_edge
  %43 = getelementptr inbounds i8, ptr %.05261.us, i64 %5
  %44 = getelementptr inbounds i8, ptr %.05459.us, i64 %1
  %45 = getelementptr inbounds i8, ptr %.05360.us, i64 %3
  %indvars.iv.next68 = add nuw nsw i64 %indvars.iv67, 1
  %exitcond70.not = icmp eq i64 %indvars.iv.next68, %7
  br i1 %exitcond70.not, label %._crit_edge63, label %.preheader.us, !llvm.loop !171

._crit_edge63:                                    ; preds = %._crit_edge.us, %10
  ret void
}